; Function Attrs: nounwind uwtable
define void @ossl_gcm_gmult_4bit(ptr noundef %0, ptr noundef %1) local_unnamed_addr #0 {
gcm_get_funcs.exit:
  %2 = load i32, ptr getelementptr inbounds nuw (i8, ptr @OPENSSL_ia32cap_P, i64 4), align 4, !tbaa !3
  %3 = and i32 %2, 2
  %.not.i = icmp eq i32 %3, 0
  %4 = and i32 %2, 272629760
  %5 = icmp eq i32 %4, 272629760
  %gcm_gmult_avx.gcm_gmult_clmul.i = select i1 %5, ptr @gcm_gmult_avx, ptr @gcm_gmult_clmul
  %gcm_gmult_avx.sink.i = select i1 %.not.i, ptr @gcm_gmult_4bit, ptr %gcm_gmult_avx.gcm_gmult_clmul.i
  tail call void %gcm_gmult_avx.sink.i(ptr noundef %0, ptr noundef %1) #6
  ret void
}